target datalayout = "e-m:e-p270:32:32-p271:32:32-p272:64:64-i64:64-i128:128-f80:128-n8:16:32:64-S128"
target triple = "x86_64-pc-linux-gnu"

%"struct.(anonymous namespace)::NoTTIImpl" = type { %"class.llvm::TargetTransformInfoImplCRTPBase" }
%"class.llvm::TargetTransformInfoImplCRTPBase" = type { %"class.llvm::TargetTransformInfoImplBase" }
%"class.llvm::TargetTransformInfoImplBase" = type { ptr }
%"class.llvm::TargetTransformInfo::Model" = type { %"class.llvm::TargetTransformInfo::Concept", %"struct.(anonymous namespace)::NoTTIImpl" }
%"class.llvm::TargetTransformInfo::Concept" = type { ptr }
%"struct.llvm::Align" = type { i8 }
%"class.std::optional.209" = type { %"struct.std::_Optional_base.210" }
%"struct.std::_Optional_base.210" = type { %"struct.std::_Optional_payload.212" }
%"struct.std::_Optional_payload.212" = type { %"struct.std::_Optional_payload_base.base.214", [3 x i8] }
%"struct.std::_Optional_payload_base.base.214" = type <{ %"union.std::_Optional_payload_base<unsigned int>::_Storage", i8 }>
%"union.std::_Optional_payload_base<unsigned int>::_Storage" = type { i32 }
%"struct.std::_Optional_payload_base.213" = type <{ %"union.std::_Optional_payload_base<unsigned int>::_Storage", i8, [3 x i8] }>

; Function Attrs: mustprogress nounwind uwtable
define linkonce_odr hidden noundef nonnull align 4 dereferenceable(4) ptr @_ZNSt22_Optional_payload_baseIjE6_M_getEv(ptr noundef nonnull align 4 dereferenceable(5) %0) #1 comdat align 2 {
  %2 = alloca ptr, align 8
  store ptr %0, ptr %2, align 8
  %3 = load ptr, ptr %2, align 8
  %4 = getelementptr inbounds nuw %"struct.std::_Optional_payload_base.213", ptr %3, i32 0, i32 0
  ret ptr %4
}

; Function Attrs: mustprogress nounwind uwtable
define linkonce_odr hidden noundef nonnull align 4 dereferenceable(4) ptr @_ZNSt19_Optional_base_implIjSt14_Optional_baseIjLb1ELb1EEE6_M_getEv(ptr noundef nonnull align 1 dereferenceable(1) %0) #1 comdat align 2 {
  %2 = alloca ptr, align 8
  store ptr %0, ptr %2, align 8
  %3 = load ptr, ptr %2, align 8
  br label %4

4:                                                ; preds = %1
  br label %5

5:                                                ; preds = %4
  %6 = getelementptr inbounds nuw %"struct.std::_Optional_base.210", ptr %3, i32 0, i32 0
  %7 = call noundef nonnull align 4 dereferenceable(4) ptr @_ZNSt22_Optional_payload_baseIjE6_M_getEv(ptr noundef nonnull align 4 dereferenceable(5) %6) #2
  ret ptr %7
}

; Function Attrs: mustprogress nounwind uwtable
define linkonce_odr hidden noundef zeroext i1 @_ZNKSt19_Optional_base_implIjSt14_Optional_baseIjLb1ELb1EEE13_M_is_engagedEv(ptr noundef nonnull align 1 dereferenceable(1) %0) #1 comdat align 2 {
  %2 = alloca ptr, align 8
  store ptr %0, ptr %2, align 8
  %3 = load ptr, ptr %2, align 8
  %4 = getelementptr inbounds nuw %"struct.std::_Optional_base.210", ptr %3, i32 0, i32 0
  %5 = getelementptr inbounds nuw %"struct.std::_Optional_payload_base.213", ptr %4, i32 0, i32 1
  %6 = load i8, ptr %5, align 4
  %7 = trunc i8 %6 to i1
  ret i1 %7
}

; Function Attrs: mustprogress nounwind uwtable
define linkonce_odr hidden noundef nonnull align 4 dereferenceable(4) ptr @_ZNRSt8optionalIjEdeEv(ptr noundef nonnull align 4 dereferenceable(8) %0) #1 comdat align 2 {
  %2 = alloca ptr, align 8
  store ptr %0, ptr %2, align 8
  %3 = load ptr, ptr %2, align 8
  %4 = call noundef nonnull align 4 dereferenceable(4) ptr @_ZNSt19_Optional_base_implIjSt14_Optional_baseIjLb1ELb1EEE6_M_getEv(ptr noundef nonnull align 1 dereferenceable(1) %3) #2
  ret ptr %4
}

; Function Attrs: mustprogress nounwind uwtable
define linkonce_odr hidden noundef zeroext i1 @_ZNKSt8optionalIjEcvbEv(ptr noundef nonnull align 4 dereferenceable(8) %0) #1 comdat align 2 {
  %2 = alloca ptr, align 8
  store ptr %0, ptr %2, align 8
  %3 = load ptr, ptr %2, align 8
  %4 = call noundef zeroext i1 @_ZNKSt19_Optional_base_implIjSt14_Optional_baseIjLb1ELb1EEE13_M_is_engagedEv(ptr noundef nonnull align 1 dereferenceable(1) %3) #2
  ret i1 %4
}

; Function Attrs: mustprogress nounwind uwtable
define linkonce_odr hidden noundef ptr @_ZNK4llvm27TargetTransformInfoImplBase25getMemcpyLoopLoweringTypeERNS_11LLVMContextEPNS_5ValueEjjNS_5AlignES5_St8optionalIjE(ptr noundef nonnull align 8 dereferenceable(8) %0, ptr noundef nonnull align 8 dereferenceable(8) %1, ptr noundef %2, i32 noundef %3, i32 noundef %4, i8 %5, i8 %6, i64 %7) #1 comdat align 2 {
  %9 = alloca %"struct.llvm::Align", align 1
  %10 = alloca %"struct.llvm::Align", align 1
  %11 = alloca %"class.std::optional.209", align 4
  %12 = alloca ptr, align 8
  %13 = alloca ptr, align 8
  %14 = alloca ptr, align 8
  %15 = alloca i32, align 4
  %16 = alloca i32, align 4
  %17 = getelementptr inbounds nuw %"struct.llvm::Align", ptr %9, i32 0, i32 0
  store i8 %5, ptr %17, align 1
  %18 = getelementptr inbounds nuw %"struct.llvm::Align", ptr %10, i32 0, i32 0
  store i8 %6, ptr %18, align 1
  %19 = getelementptr inbounds nuw %"class.std::optional.209", ptr %11, i32 0, i32 0
  %20 = getelementptr inbounds nuw %"struct.std::_Optional_base.210", ptr %19, i32 0, i32 0
  store i64 %7, ptr %20, align 4
  store ptr %0, ptr %12, align 8
  store ptr %1, ptr %13, align 8
  store ptr %2, ptr %14, align 8
  store i32 %3, ptr %15, align 4
  store i32 %4, ptr %16, align 4
  %21 = call noundef zeroext i1 @_ZNKSt8optionalIjEcvbEv(ptr noundef nonnull align 4 dereferenceable(8) %11) #2
  br i1 %21, label %22, label %28

22:                                               ; preds = %8
  %23 = load ptr, ptr %13, align 8
  %24 = call noundef nonnull align 4 dereferenceable(4) ptr @_ZNRSt8optionalIjEdeEv(ptr noundef nonnull align 4 dereferenceable(8) %11) #2
  %25 = load i32, ptr %24, align 4
  %26 = mul i32 %25, 8
  %27 = call noundef ptr @_ZN4llvm4Type9getIntNTyERNS_11LLVMContextEj(ptr noundef nonnull align 8 dereferenceable(8) %23, i32 noundef %26)
  br label %31

28:                                               ; preds = %8
  %29 = load ptr, ptr %13, align 8
  %30 = call noundef ptr @_ZN4llvm4Type9getInt8TyERNS_11LLVMContextE(ptr noundef nonnull align 8 dereferenceable(8) %29)
  br label %31

31:                                               ; preds = %28, %22
  %32 = phi ptr [ %27, %22 ], [ %30, %28 ]
  ret ptr %32
}

; Function Attrs: mustprogress nounwind uwtable
define internal noundef ptr @_ZNK4llvm19TargetTransformInfo5ModelIN12_GLOBAL__N_19NoTTIImplEE25getMemcpyLoopLoweringTypeERNS_11LLVMContextEPNS_5ValueEjjNS_5AlignES9_St8optionalIjE(ptr noundef nonnull align 8 dereferenceable(16) %0, ptr noundef nonnull align 8 dereferenceable(8) %1, ptr noundef %2, i32 noundef %3, i32 noundef %4, i8 %5, i8 %6, i64 %7) unnamed_addr #1 align 2 {
  %9 = alloca %"struct.llvm::Align", align 1
  %10 = alloca %"struct.llvm::Align", align 1
  %11 = alloca %"class.std::optional.209", align 4
  %12 = alloca ptr, align 8
  %13 = alloca ptr, align 8
  %14 = alloca ptr, align 8
  %15 = alloca i32, align 4
  %16 = alloca i32, align 4
  %17 = alloca %"struct.llvm::Align", align 1
  %18 = alloca %"struct.llvm::Align", align 1
  %19 = alloca %"class.std::optional.209", align 4
  %20 = getelementptr inbounds nuw %"struct.llvm::Align", ptr %9, i32 0, i32 0
  store i8 %5, ptr %20, align 1
  %21 = getelementptr inbounds nuw %"struct.llvm::Align", ptr %10, i32 0, i32 0
  store i8 %6, ptr %21, align 1
  %22 = getelementptr inbounds nuw %"class.std::optional.209", ptr %11, i32 0, i32 0
  %23 = getelementptr inbounds nuw %"struct.std::_Optional_base.210", ptr %22, i32 0, i32 0
  store i64 %7, ptr %23, align 4
  store ptr %0, ptr %12, align 8
  store ptr %1, ptr %13, align 8
  store ptr %2, ptr %14, align 8
  store i32 %3, ptr %15, align 4
  store i32 %4, ptr %16, align 4
  %24 = load ptr, ptr %12, align 8
  %25 = getelementptr inbounds nuw %"class.llvm::TargetTransformInfo::Model", ptr %24, i32 0, i32 1
  %26 = load ptr, ptr %13, align 8
  %27 = load ptr, ptr %14, align 8
  %28 = load i32, ptr %15, align 4
  %29 = load i32, ptr %16, align 4
  call void @llvm.memcpy.p0.p0.i64(ptr align 1 %17, ptr align 1 %9, i64 1, i1 false)
  call void @llvm.memcpy.p0.p0.i64(ptr align 1 %18, ptr align 1 %10, i64 1, i1 false)
  call void @llvm.memcpy.p0.p0.i64(ptr align 4 %19, ptr align 4 %11, i64 8, i1 false)
  %30 = getelementptr inbounds nuw %"struct.llvm::Align", ptr %17, i32 0, i32 0
  %31 = load i8, ptr %30, align 1
  %32 = getelementptr inbounds nuw %"struct.llvm::Align", ptr %18, i32 0, i32 0
  %33 = load i8, ptr %32, align 1
  %34 = getelementptr inbounds nuw %"class.std::optional.209", ptr %19, i32 0, i32 0
  %35 = getelementptr inbounds nuw %"struct.std::_Optional_base.210", ptr %34, i32 0, i32 0
  %36 = load i64, ptr %35, align 4
  %37 = call noundef ptr @_ZNK4llvm27TargetTransformInfoImplBase25getMemcpyLoopLoweringTypeERNS_11LLVMContextEPNS_5ValueEjjNS_5AlignES5_St8optionalIjE(ptr noundef nonnull align 8 dereferenceable(8) %25, ptr noundef nonnull align 8 dereferenceable(8) %26, ptr noundef %27, i32 noundef %28, i32 noundef %29, i8 %31, i8 %33, i64 %36)
  ret ptr %37
}