; Function Attrs: mustprogress nounwind uwtable
define internal noundef ptr @_ZNK4llvm19TargetTransformInfo5ModelIN12_GLOBAL__N_19NoTTIImplEE25getMemcpyLoopLoweringTypeERNS_11LLVMContextEPNS_5ValueEjjNS_5AlignES9_St8optionalIjE(ptr nocapture nonnull readnone align 8 %0, ptr noundef nonnull align 8 dereferenceable(8) %1, ptr nocapture readnone %2, i32 %3, i32 %4, i8 %5, i8 %6, i64 %7) unnamed_addr #0 align 2 {
  %9 = and i64 %7, 4294967296
  %.not.i = icmp eq i64 %9, 0
  br i1 %.not.i, label %13, label %10

10:                                               ; preds = %8
  %.sroa.0.0.extract.trunc.i = trunc i64 %7 to i32
  %11 = shl i32 %.sroa.0.0.extract.trunc.i, 3
  %12 = tail call noundef ptr @_ZN4llvm4Type9getIntNTyERNS_11LLVMContextEj(ptr noundef nonnull align 8 dereferenceable(8) %1, i32 noundef %11) #25
  br label %_ZNK4llvm27TargetTransformInfoImplBase25getMemcpyLoopLoweringTypeERNS_11LLVMContextEPNS_5ValueEjjNS_5AlignES5_St8optionalIjE.exit

13:                                               ; preds = %8
  %14 = tail call noundef ptr @_ZN4llvm4Type9getInt8TyERNS_11LLVMContextE(ptr noundef nonnull align 8 dereferenceable(8) %1) #25
  br label %_ZNK4llvm27TargetTransformInfoImplBase25getMemcpyLoopLoweringTypeERNS_11LLVMContextEPNS_5ValueEjjNS_5AlignES5_St8optionalIjE.exit

_ZNK4llvm27TargetTransformInfoImplBase25getMemcpyLoopLoweringTypeERNS_11LLVMContextEPNS_5ValueEjjNS_5AlignES5_St8optionalIjE.exit: ; preds = %10, %13
  %15 = phi ptr [ %12, %10 ], [ %14, %13 ]
  ret ptr %15
}